; Function Attrs: mustprogress nounwind uwtable
define hidden void @_ZN20ClassLoaderMetaspace10deallocateEPP12MetaWordImplmb(ptr nocapture noundef nonnull readonly align 8 dereferenceable(32) %0, ptr noundef %1, i64 noundef %2, i1 noundef zeroext %3) local_unnamed_addr #0 align 2 {
  %5 = load ptr, ptr %0, align 8
  %.not.i.i = icmp eq ptr %5, null
  br i1 %.not.i.i, label %_ZN11MutexLockerD2Ev.exit.critedge, label %_ZN11MutexLockerC2EP5MutexNS0_18SafepointCheckFlagE.exit

_ZN11MutexLockerC2EP5MutexNS0_18SafepointCheckFlagE.exit: ; preds = %4
  tail call void @_ZN5Mutex28lock_without_safepoint_checkEv(ptr noundef nonnull align 8 dereferenceable(104) %5) #6
  %6 = load i8, ptr @UseCompressedClassPointers, align 1
  %7 = trunc i8 %6 to i1
  %brmerge.demorgan = and i1 %7, %3
  %. = select i1 %brmerge.demorgan, i64 24, i64 16
  %8 = getelementptr inbounds i8, ptr %0, i64 %.
  %9 = load ptr, ptr %8, align 8
  tail call void @_ZN9metaspace14MetaspaceArena10deallocateEPP12MetaWordImplm(ptr noundef nonnull align 8 dereferenceable(56) %9, ptr noundef %1, i64 noundef %2) #6
  tail call void @_ZN5Mutex6unlockEv(ptr noundef nonnull align 8 dereferenceable(104) %5) #6
  br label %_ZN11MutexLockerD2Ev.exit

_ZN11MutexLockerD2Ev.exit.critedge:               ; preds = %4
  %10 = load i8, ptr @UseCompressedClassPointers, align 1
  %11 = trunc i8 %10 to i1
  %brmerge.demorgan.c = and i1 %11, %3
  %..c = select i1 %brmerge.demorgan.c, i64 24, i64 16
  %12 = getelementptr inbounds i8, ptr %0, i64 %..c
  %13 = load ptr, ptr %12, align 8
  tail call void @_ZN9metaspace14MetaspaceArena10deallocateEPP12MetaWordImplm(ptr noundef nonnull align 8 dereferenceable(56) %13, ptr noundef %1, i64 noundef %2) #6
  br label %_ZN11MutexLockerD2Ev.exit

_ZN11MutexLockerD2Ev.exit:                        ; preds = %_ZN11MutexLockerD2Ev.exit.critedge, %_ZN11MutexLockerC2EP5MutexNS0_18SafepointCheckFlagE.exit
  ret void
}